TN:
SF:/home/user/3sem/labb/arr.cpp
FN:11,13,_ZN5MyArrD2Ev
FN:115,138,_ZN5MyArr5delAtEi
FN:141,146,_ZN5MyArr6repArrEiRKNSt7__cxx1112basic_stringIcSt11char_traitsIcESaIcEEE
FN:149,160,_ZNK5MyArr9readArrayEv
FN:16,35,_ZN5MyArr14ensureCapacityEi
FN:163,168,_ZNK5MyArr5getAtB5cxx11Ei
FN:171,173,_ZNK5MyArr6lenArrEv
FN:176,184,_ZNK5MyArr10saveToFileERKNSt7__cxx1112basic_stringIcSt11char_traitsIcESaIcEEE
FN:186,207,_ZN5MyArr12loadFromFileERKNSt7__cxx1112basic_stringIcSt11char_traitsIcESaIcEEE
FN:209,219,_ZNK5MyArr16saveToBinaryFileERKNSt7__cxx1112basic_stringIcSt11char_traitsIcESaIcEEE
FN:221,248,_ZN5MyArr18loadFromBinaryFileERKNSt7__cxx1112basic_stringIcSt11char_traitsIcESaIcEEE
FN:38,41,_ZN5MyArr6addEndERKNSt7__cxx1112basic_stringIcSt11char_traitsIcESaIcEEE
FN:44,58,_ZN5MyArr5addAtEiRKNSt7__cxx1112basic_stringIcSt11char_traitsIcESaIcEEE
FN:60,67,_ZN5MyArr7addHeadERKNSt7__cxx1112basic_stringIcSt11char_traitsIcESaIcEEE
FN:7,8,_ZN5MyArrC2Ev
FN:70,91,_ZN5MyArr7delHeadEv
FN:94,112,_ZN5MyArr6delEndEv
FNDA:141,_ZN5MyArrD2Ev
FNDA:23,_ZN5MyArr5delAtEi
FNDA:3,_ZN5MyArr6repArrEiRKNSt7__cxx1112basic_stringIcSt11char_traitsIcESaIcEEE
FNDA:1,_ZNK5MyArr9readArrayEv
FNDA:383,_ZN5MyArr14ensureCapacityEi
FNDA:545,_ZNK5MyArr5getAtB5cxx11Ei
FNDA:97,_ZNK5MyArr6lenArrEv
FNDA:47,_ZNK5MyArr10saveToFileERKNSt7__cxx1112basic_stringIcSt11char_traitsIcESaIcEEE
FNDA:48,_ZN5MyArr12loadFromFileERKNSt7__cxx1112basic_stringIcSt11char_traitsIcESaIcEEE
FNDA:47,_ZNK5MyArr16saveToBinaryFileERKNSt7__cxx1112basic_stringIcSt11char_traitsIcESaIcEEE
FNDA:48,_ZN5MyArr18loadFromBinaryFileERKNSt7__cxx1112basic_stringIcSt11char_traitsIcESaIcEEE
FNDA:288,_ZN5MyArr6addEndERKNSt7__cxx1112basic_stringIcSt11char_traitsIcESaIcEEE
FNDA:3,_ZN5MyArr5addAtEiRKNSt7__cxx1112basic_stringIcSt11char_traitsIcESaIcEEE
FNDA:1,_ZN5MyArr7addHeadERKNSt7__cxx1112basic_stringIcSt11char_traitsIcESaIcEEE
FNDA:141,_ZN5MyArrC2Ev
FNDA:21,_ZN5MyArr7delHeadEv
FNDA:66,_ZN5MyArr6delEndEv
FNF:17
FNH:17
DA:7,141
DA:8,141
DA:11,141
DA:12,821
DA:13,141
DA:16,383
DA:17,383
DA:18,134
DA:21,249
DA:22,546
DA:23,297
DA:27,1441
DA:28,575
DA:29,326
DA:32,575
DA:33,249
DA:34,249
DA:38,288
DA:39,288
DA:40,288
DA:41,288
DA:44,3
DA:45,3
DA:46,2
DA:49,1
DA:52,2
DA:53,1
DA:56,1
DA:57,1
DA:60,1
DA:61,1
DA:62,2
DA:63,1
DA:65,1
DA:66,1
DA:67,1
DA:70,21
DA:71,21
DA:72,1
DA:74,210
DA:75,190
DA:77,20
DA:80,20
DA:81,4
DA:83,34
DA:84,19
DA:85,15
DA:87,64
DA:88,4
DA:89,4
DA:94,66
DA:95,66
DA:96,1
DA:98,65
DA:101,65
DA:102,6
DA:104,132
DA:105,69
DA:106,63
DA:108,258
DA:109,6
DA:110,6
DA:115,23
DA:116,23
DA:117,3
DA:120,210
DA:121,190
DA:124,20
DA:127,20
DA:128,4
DA:130,34
DA:131,19
DA:132,15
DA:134,64
DA:135,4
DA:136,4
DA:141,3
DA:142,3
DA:143,3
DA:145,0
DA:149,1
DA:150,1
DA:152,1
DA:153,1
DA:155,0
DA:156,0
DA:157,0
DA:159,0
DA:163,545
DA:164,545
DA:165,543
DA:167,4
DA:171,97
DA:172,97
DA:176,47
DA:177,47
DA:178,47
DA:180,46
DA:181,228
DA:182,182
DA:184,47
DA:186,48
DA:187,48
DA:188,48
DA:190,47
DA:191,47
DA:192,47
DA:193,47
DA:196,47
DA:197,47
DA:199,47
DA:201,46
DA:202,46
DA:204,228
DA:205,182
DA:207,49
DA:209,47
DA:210,47
DA:211,47
DA:212,1
DA:215,46
DA:216,228
DA:217,182
DA:219,47
DA:221,48
DA:222,48
DA:223,48
DA:224,1
DA:227,47
DA:228,47
DA:229,47
DA:230,47
DA:233,47
DA:234,47
DA:235,0
DA:238,47
DA:239,47
DA:241,229
DA:242,183
DA:243,183
DA:244,1
DA:245,1
DA:248,48
LF:143
LH:137
end_of_record
TN:
SF:/home/user/3sem/labb/arr.h
FN:49,51,_ZNK5MyArr12getData_testB5cxx11Ev
FNDA:1,_ZNK5MyArr12getData_testB5cxx11Ev
FNF:1
FNH:1
DA:49,1
DA:50,1
LF:2
LH:2
end_of_record
TN:
SF:/home/user/3sem/labb/compl.cpp
FN:11,11,_ZN18CompleteBinaryTreeC2Ev
FN:133,147,_ZN18CompleteBinaryTree6removeEi
FN:14,16,_ZN18CompleteBinaryTreeD2Ev
FN:150,166,_ZNK18CompleteBinaryTree6searchEi
FN:169,197,_ZNK18CompleteBinaryTree13printTreeUtilEP8TreeNodeRKNSt7__cxx1112basic_stringIcSt11char_traitsIcESaIcEEEb
FN:19,26,_ZN18CompleteBinaryTree19deleteTreeRecursiveEP8TreeNode
FN:200,220,_ZNK18CompleteBinaryTree5printEv
FN:223,225,_ZNK18CompleteBinaryTree7getSizeEv
FN:229,240,_ZNK18CompleteBinaryTree10saveToFileERSt14basic_ofstreamIcSt11char_traitsIcEE
FN:230,238,_ZZNK18CompleteBinaryTree10saveToFileERSt14basic_ofstreamIcSt11char_traitsIcEEENKUlP8TreeNodeE_clES6_
FN:242,256,_ZN18CompleteBinaryTree12loadFromFileERSt14basic_ifstreamIcSt11char_traitsIcEE
FN:244,254,_ZZN18CompleteBinaryTree12loadFromFileERSt14basic_ifstreamIcSt11char_traitsIcEEENKUlvE_clEv
FN:258,270,_ZNK18CompleteBinaryTree16saveToBinaryFileERSt14basic_ofstreamIcSt11char_traitsIcEE
FN:259,268,_ZZNK18CompleteBinaryTree16saveToBinaryFileERSt14basic_ofstreamIcSt11char_traitsIcEEENKUlP8TreeNodeE_clES6_
FN:272,287,_ZN18CompleteBinaryTree18loadFromBinaryFileERSt14basic_ifstreamIcSt11char_traitsIcEE
FN:274,285,_ZZN18CompleteBinaryTree18loadFromBinaryFileERSt14basic_ifstreamIcSt11char_traitsIcEEENKUlvE_clEv
FN:29,34,_ZN18CompleteBinaryTree7findMinEP8TreeNode
FN:290,294,_ZNK18CompleteBinaryTree10saveToFileERKNSt7__cxx1112basic_stringIcSt11char_traitsIcESaIcEEE
FN:296,300,_ZN18CompleteBinaryTree12loadFromFileERKNSt7__cxx1112basic_stringIcSt11char_traitsIcESaIcEEE
FN:302,306,_ZNK18CompleteBinaryTree16saveToBinaryFileERKNSt7__cxx1112basic_stringIcSt11char_traitsIcESaIcEEE
FN:308,312,_ZN18CompleteBinaryTree18loadFromBinaryFileERKNSt7__cxx1112basic_stringIcSt11char_traitsIcESaIcEEE
FN:37,78,_ZN18CompleteBinaryTree19deleteNodeRecursiveEP8TreeNodei
FN:81,83,_ZNK18CompleteBinaryTree7isEmptyEv
FN:86,93,_ZN18CompleteBinaryTree5clearEv
FN:96,130,_ZN18CompleteBinaryTree6insertEi
FNDA:155,_ZN18CompleteBinaryTreeC2Ev
FNDA:10,_ZN18CompleteBinaryTree6removeEi
FNDA:155,_ZN18CompleteBinaryTreeD2Ev
FNDA:294,_ZNK18CompleteBinaryTree6searchEi
FNDA:1,_ZNK18CompleteBinaryTree13printTreeUtilEP8TreeNodeRKNSt7__cxx1112basic_stringIcSt11char_traitsIcESaIcEEEb
FNDA:1036,_ZN18CompleteBinaryTree19deleteTreeRecursiveEP8TreeNode
FNDA:2,_ZNK18CompleteBinaryTree5printEv
FNDA:17,_ZNK18CompleteBinaryTree7getSizeEv
FNDA:46,_ZNK18CompleteBinaryTree10saveToFileERSt14basic_ofstreamIcSt11char_traitsIcEE
FNDA:322,_ZZNK18CompleteBinaryTree10saveToFileERSt14basic_ofstreamIcSt11char_traitsIcEEENKUlP8TreeNodeE_clES6_
FNDA:47,_ZN18CompleteBinaryTree12loadFromFileERSt14basic_ifstreamIcSt11char_traitsIcEE
FNDA:323,_ZZN18CompleteBinaryTree12loadFromFileERSt14basic_ifstreamIcSt11char_traitsIcEEENKUlvE_clEv
FNDA:46,_ZNK18CompleteBinaryTree16saveToBinaryFileERSt14basic_ofstreamIcSt11char_traitsIcEE
FNDA:322,_ZZNK18CompleteBinaryTree16saveToBinaryFileERSt14basic_ofstreamIcSt11char_traitsIcEEENKUlP8TreeNodeE_clES6_
FNDA:48,_ZN18CompleteBinaryTree18loadFromBinaryFileERSt14basic_ifstreamIcSt11char_traitsIcEE
FNDA:324,_ZZN18CompleteBinaryTree18loadFromBinaryFileERSt14basic_ifstreamIcSt11char_traitsIcEEENKUlvE_clEv
FNDA:2,_ZN18CompleteBinaryTree7findMinEP8TreeNode
FNDA:46,_ZNK18CompleteBinaryTree10saveToFileERKNSt7__cxx1112basic_stringIcSt11char_traitsIcESaIcEEE
FNDA:46,_ZN18CompleteBinaryTree12loadFromFileERKNSt7__cxx1112basic_stringIcSt11char_traitsIcESaIcEEE
FNDA:46,_ZNK18CompleteBinaryTree16saveToBinaryFileERKNSt7__cxx1112basic_stringIcSt11char_traitsIcESaIcEEE
FNDA:47,_ZN18CompleteBinaryTree18loadFromBinaryFileERKNSt7__cxx1112basic_stringIcSt11char_traitsIcESaIcEEE
FNDA:16,_ZN18CompleteBinaryTree19deleteNodeRecursiveEP8TreeNodei
FNDA:308,_ZNK18CompleteBinaryTree7isEmptyEv
FNDA:251,_ZN18CompleteBinaryTree5clearEv
FNDA:174,_ZN18CompleteBinaryTree6insertEi
FNF:25
FNH:25
DA:11,155
DA:14,155
DA:15,155
DA:16,155
DA:19,1036
DA:20,1036
DA:21,594
DA:23,442
DA:24,442
DA:25,442
DA:29,2
DA:30,3
DA:31,1
DA:33,2
DA:37,16
DA:38,16
DA:39,2
DA:42,14
DA:44,4
DA:45,10
DA:47,2
DA:52,8
DA:53,4
DA:54,4
DA:55,4
DA:56,4
DA:59,4
DA:60,2
DA:61,2
DA:62,2
DA:63,2
DA:68,2
DA:71,2
DA:75,2
DA:77,8
DA:81,308
DA:82,308
DA:86,251
DA:87,251
DA:88,152
DA:89,152
DA:90,152
DA:93,251
DA:96,174
DA:97,174
DA:99,174
DA:100,60
DA:101,60
DA:103,60
DA:106,114
DA:108,118
DA:109,61
DA:110,59
DA:111,59
DA:113,59
DA:115,2
DA:116,57
DA:117,55
DA:118,53
DA:119,53
DA:121,53
DA:123,2
DA:126,2
DA:127,2
DA:133,10
DA:134,10
DA:135,2
DA:136,2
DA:139,8
DA:140,8
DA:142,8
DA:143,6
DA:145,2
DA:150,294
DA:151,294
DA:152,1
DA:154,293
DA:155,494
DA:156,487
DA:157,286
DA:159,201
DA:160,102
DA:162,99
DA:165,7
DA:169,1
DA:170,1
DA:171,0
DA:174,1
DA:175,1
DA:176,1
DA:178,0
DA:180,1
DA:182,1
DA:183,1
DA:184,1
DA:186,0
DA:189,1
DA:190,0
DA:191,0
DA:192,1
DA:193,0
DA:194,1
DA:195,0
DA:197,1
DA:200,2
DA:201,2
DA:202,1
DA:203,1
DA:205,1
DA:206,1
DA:208,1
DA:210,1
DA:211,0
DA:212,0
DA:213,1
DA:214,2
DA:215,0
DA:216,0
DA:219,1
DA:223,17
DA:224,17
DA:229,46
DA:230,414
DA:231,322
DA:232,184
DA:233,184
DA:235,138
DA:236,138
DA:237,138
DA:238,46
DA:239,46
DA:240,46
DA:242,47
DA:243,47
DA:244,0
DA:245,323
DA:246,323
DA:247,322
DA:248,138
DA:249,138
DA:250,138
DA:251,138
DA:252,138
DA:253,138
DA:254,370
DA:255,47
DA:256,47
DA:258,46
DA:259,414
DA:260,322
DA:261,184
DA:262,184
DA:263,184
DA:265,138
DA:266,138
DA:267,138
DA:268,46
DA:269,46
DA:270,46
DA:272,48
DA:273,48
DA:274,0
DA:276,324
DA:277,323
DA:279,138
DA:280,138
DA:282,138
DA:283,138
DA:284,138
DA:285,48
DA:286,48
DA:287,48
DA:290,46
DA:291,46
DA:292,46
DA:293,45
DA:294,46
DA:296,46
DA:297,46
DA:298,46
DA:299,45
DA:300,46
DA:302,46
DA:303,46
DA:304,46
DA:305,45
DA:306,46
DA:308,47
DA:309,47
DA:310,47
DA:311,46
DA:312,47
LF:192
LH:179
end_of_record
TN:
SF:/home/user/3sem/labb/compl.h
FN:16,16,_ZN8TreeNodeC2Ei
FNDA:450,_ZN8TreeNodeC2Ei
FNF:1
FNH:1
DA:16,450
LF:1
LH:1
end_of_record
TN:
SF:/home/user/3sem/labb/dlist.cpp
FN:10,17,_ZN5DListD2Ev
FN:100,112,_ZN5DList7delTailEv
FN:114,133,_ZN5DList8delByValERKNSt7__cxx1112basic_stringIcSt11char_traitsIcESaIcEEE
FN:136,143,_ZNK5DList9findValueERKNSt7__cxx1112basic_stringIcSt11char_traitsIcESaIcEEE
FN:145,147,_ZNK5DList8containsERKNSt7__cxx1112basic_stringIcSt11char_traitsIcESaIcEEE
FN:149,159,_ZNK5DList11readForwardEv
FN:161,172,_ZNK5DList12readBackwardEv
FN:174,180,_ZN5DList13delAfterValueERKNSt7__cxx1112basic_stringIcSt11char_traitsIcESaIcEEE
FN:182,188,_ZN5DList14delBeforeValueERKNSt7__cxx1112basic_stringIcSt11char_traitsIcESaIcEEE
FN:190,203,_ZNK5DList10saveToFileERKNSt7__cxx1112basic_stringIcSt11char_traitsIcESaIcEEE
FN:20,33,_ZN5DList7addHeadERKNSt7__cxx1112basic_stringIcSt11char_traitsIcESaIcEEE
FN:205,223,_ZN5DList12loadFromFileERKNSt7__cxx1112basic_stringIcSt11char_traitsIcESaIcEEE
FN:226,241,_ZNK5DList16saveToBinaryFileERKNSt7__cxx1112basic_stringIcSt11char_traitsIcESaIcEEE
FN:243,266,_ZN5DList18loadFromBinaryFileERKNSt7__cxx1112basic_stringIcSt11char_traitsIcESaIcEEE
FN:36,46,_ZN5DList7addTailERKNSt7__cxx1112basic_stringIcSt11char_traitsIcESaIcEEE
FN:49,65,_ZN5DList9addBeforeERKNSt7__cxx1112basic_stringIcSt11char_traitsIcESaIcEEES7_
FN:6,7,_ZN5DListC2Ev
FN:67,83,_ZN5DList8addAfterERKNSt7__cxx1112basic_stringIcSt11char_traitsIcESaIcEEES7_
FN:85,97,_ZN5DList7delHeadEv
FNDA:141,_ZN5DListD2Ev
FNDA:2,_ZN5DList7delTailEv
FNDA:7,_ZN5DList8delByValERKNSt7__cxx1112basic_stringIcSt11char_traitsIcESaIcEEE
FNDA:289,_ZNK5DList9findValueERKNSt7__cxx1112basic_stringIcSt11char_traitsIcESaIcEEE
FNDA:276,_ZNK5DList8containsERKNSt7__cxx1112basic_stringIcSt11char_traitsIcESaIcEEE
FNDA:1,_ZNK5DList11readForwardEv
FNDA:0,_ZNK5DList12readBackwardEv
FNDA:3,_ZN5DList13delAfterValueERKNSt7__cxx1112basic_stringIcSt11char_traitsIcESaIcEEE
FNDA:3,_ZN5DList14delBeforeValueERKNSt7__cxx1112basic_stringIcSt11char_traitsIcESaIcEEE
FNDA:46,_ZNK5DList10saveToFileERKNSt7__cxx1112basic_stringIcSt11char_traitsIcESaIcEEE
FNDA:2,_ZN5DList7addHeadERKNSt7__cxx1112basic_stringIcSt11char_traitsIcESaIcEEE
FNDA:46,_ZN5DList12loadFromFileERKNSt7__cxx1112basic_stringIcSt11char_traitsIcESaIcEEE
FNDA:46,_ZNK5DList16saveToBinaryFileERKNSt7__cxx1112basic_stringIcSt11char_traitsIcESaIcEEE
FNDA:47,_ZN5DList18loadFromBinaryFileERKNSt7__cxx1112basic_stringIcSt11char_traitsIcESaIcEEE
FNDA:414,_ZN5DList7addTailERKNSt7__cxx1112basic_stringIcSt11char_traitsIcESaIcEEE
FNDA:3,_ZN5DList9addBeforeERKNSt7__cxx1112basic_stringIcSt11char_traitsIcESaIcEEES7_
FNDA:141,_ZN5DListC2Ev
FNDA:2,_ZN5DList8addAfterERKNSt7__cxx1112basic_stringIcSt11char_traitsIcESaIcEEES7_
FNDA:2,_ZN5DList7delHeadEv
FNF:19
FNH:18
DA:6,141
DA:7,141
DA:10,141
DA:11,694
DA:12,412
DA:13,412
DA:14,412
DA:16,141
DA:17,141
DA:20,2
DA:22,2
DA:24,2
DA:27,0
DA:29,2
DA:32,2
DA:33,2
DA:36,414
DA:37,414
DA:38,414
DA:40,275
DA:42,139
DA:45,414
DA:46,414
DA:49,3
DA:50,3
DA:51,1
DA:53,3
DA:54,3
DA:55,2
DA:56,2
DA:57,1
DA:59,1
DA:61,2
DA:62,2
DA:67,2
DA:68,2
DA:69,1
DA:71,4
DA:72,4
DA:73,1
DA:74,1
DA:75,0
DA:77,1
DA:79,1
DA:80,1
DA:85,2
DA:86,2
DA:87,1
DA:89,1
DA:90,1
DA:91,1
DA:92,0
DA:94,1
DA:96,1
DA:100,2
DA:101,2
DA:102,1
DA:104,1
DA:105,1
DA:106,1
DA:107,0
DA:109,1
DA:111,1
DA:114,7
DA:115,7
DA:116,7
DA:117,2
DA:120,5
DA:121,2
DA:123,3
DA:126,5
DA:127,3
DA:129,2
DA:132,5
DA:136,289
DA:137,567
DA:138,559
DA:139,281
DA:142,8
DA:145,276
DA:146,276
DA:149,1
DA:150,1
DA:151,0
DA:152,0
DA:154,1
DA:155,4
DA:156,3
DA:158,1
DA:161,0
DA:162,0
DA:163,0
DA:164,0
DA:167,0
DA:168,0
DA:169,0
DA:171,0
DA:174,3
DA:175,3
DA:176,3
DA:177,2
DA:179,1
DA:182,3
DA:183,3
DA:184,3
DA:185,2
DA:187,1
DA:190,46
DA:191,46
DA:192,46
DA:194,45
DA:195,180
DA:196,135
DA:198,45
DA:200,180
DA:201,135
DA:203,46
DA:205,46
DA:206,46
DA:207,46
DA:209,45
DA:210,0
DA:214,45
DA:215,45
DA:217,45
DA:219,180
DA:220,135
DA:221,135
DA:222,135
DA:223,46
DA:226,46
DA:227,46
DA:228,46
DA:229,1
DA:232,45
DA:233,180
DA:234,135
DA:236,45
DA:238,180
DA:239,135
DA:241,46
DA:243,47
DA:244,47
DA:245,47
DA:246,1
DA:249,46
DA:250,0
DA:254,46
DA:255,46
DA:256,0
DA:259,181
DA:260,136
DA:261,136
DA:262,1
DA:264,135
DA:265,136
DA:266,47
LF:157
LH:140
end_of_record
TN:
SF:/home/user/3sem/labb/dlist.h
FN:19,19,_ZN5DList5DNodeC2ERKNSt7__cxx1112basic_stringIcSt11char_traitsIcESaIcEEEPS0_S9_
FN:79,82,_ZNK5DList12getHead_TestEv
FN:83,86,_ZNK5DList12getTail_TestEv
FNDA:419,_ZN5DList5DNodeC2ERKNSt7__cxx1112basic_stringIcSt11char_traitsIcESaIcEEEPS0_S9_
FNDA:7,_ZNK5DList12getHead_TestEv
FNDA:3,_ZNK5DList12getTail_TestEv
FNF:3
FNH:3
DA:19,419
DA:79,7
DA:81,7
DA:83,3
DA:85,3
LF:5
LH:5
end_of_record
TN:
SF:/home/user/3sem/labb/hash.cpp
FN:101,119,_ZN9ChainHash4showEv
FN:121,147,_ZNK9ChainHash10saveToFileERKNSt7__cxx1112basic_stringIcSt11char_traitsIcESaIcEEE
FN:149,184,_ZN9ChainHash12loadFromFileERKNSt7__cxx1112basic_stringIcSt11char_traitsIcESaIcEEE
FN:187,211,_ZNK9ChainHash16saveToBinaryFileERKNSt7__cxx1112basic_stringIcSt11char_traitsIcESaIcEEE
FN:19,24,_ZN9ChainHashC2Ei
FN:213,242,_ZN9ChainHash18loadFromBinaryFileERKNSt7__cxx1112basic_stringIcSt11char_traitsIcESaIcEEE
FN:246,254,_ZN8OpenHashC2Ei
FN:256,261,_ZN8OpenHashD2Ev
FN:26,41,_ZN9ChainHashD2Ev
FN:263,301,_ZN8OpenHash6insertERKNSt7__cxx1112basic_stringIcSt11char_traitsIcESaIcEEES7_
FN:303,324,_ZN8OpenHash5eraseERKNSt7__cxx1112basic_stringIcSt11char_traitsIcESaIcEEE
FN:326,342,_ZNK8OpenHash4findERKNSt7__cxx1112basic_stringIcSt11char_traitsIcESaIcEEE
FN:344,358,_ZN8OpenHash4showEv
FN:360,378,_ZNK8OpenHash10saveToFileERKNSt7__cxx1112basic_stringIcSt11char_traitsIcESaIcEEE
FN:380,404,_ZN8OpenHash12loadFromFileERKNSt7__cxx1112basic_stringIcSt11char_traitsIcESaIcEEE
FN:407,422,_ZNK8OpenHash16saveToBinaryFileERKNSt7__cxx1112basic_stringIcSt11char_traitsIcESaIcEEE
FN:424,439,_ZN8OpenHash18loadFromBinaryFileERKNSt7__cxx1112basic_stringIcSt11char_traitsIcESaIcEEE
FN:43,60,_ZN9ChainHash6insertERKNSt7__cxx1112basic_stringIcSt11char_traitsIcESaIcEEES7_
FN:441,443,_Z13is_space_charc
FN:445,461,_Z9parse_cmdRKNSt7__cxx1112basic_stringIcSt11char_traitsIcESaIcEEERS4_S7_S7_
FN:463,505,_Z8hash_manv
FN:62,85,_ZN9ChainHash5eraseERKNSt7__cxx1112basic_stringIcSt11char_traitsIcESaIcEEE
FN:8,16,_Z8hash_strRKNSt7__cxx1112basic_stringIcSt11char_traitsIcESaIcEEEi
FN:87,99,_ZN9ChainHash4findERKNSt7__cxx1112basic_stringIcSt11char_traitsIcESaIcEEE
FNDA:3,_ZN9ChainHash4showEv
FNDA:47,_ZNK9ChainHash10saveToFileERKNSt7__cxx1112basic_stringIcSt11char_traitsIcESaIcEEE
FNDA:48,_ZN9ChainHash12loadFromFileERKNSt7__cxx1112basic_stringIcSt11char_traitsIcESaIcEEE
FNDA:45,_ZNK9ChainHash16saveToBinaryFileERKNSt7__cxx1112basic_stringIcSt11char_traitsIcESaIcEEE
FNDA:146,_ZN9ChainHashC2Ei
FNDA:45,_ZN9ChainHash18loadFromBinaryFileERKNSt7__cxx1112basic_stringIcSt11char_traitsIcESaIcEEE
FNDA:146,_ZN8OpenHashC2Ei
FNDA:146,_ZN8OpenHashD2Ev
FNDA:146,_ZN9ChainHashD2Ev
FNDA:291,_ZN8OpenHash6insertERKNSt7__cxx1112basic_stringIcSt11char_traitsIcESaIcEEES7_
FNDA:5,_ZN8OpenHash5eraseERKNSt7__cxx1112basic_stringIcSt11char_traitsIcESaIcEEE
FNDA:374,_ZNK8OpenHash4findERKNSt7__cxx1112basic_stringIcSt11char_traitsIcESaIcEEE
FNDA:1,_ZN8OpenHash4showEv
FNDA:46,_ZNK8OpenHash10saveToFileERKNSt7__cxx1112basic_stringIcSt11char_traitsIcESaIcEEE
FNDA:47,_ZN8OpenHash12loadFromFileERKNSt7__cxx1112basic_stringIcSt11char_traitsIcESaIcEEE
FNDA:46,_ZNK8OpenHash16saveToBinaryFileERKNSt7__cxx1112basic_stringIcSt11char_traitsIcESaIcEEE
FNDA:46,_ZN8OpenHash18loadFromBinaryFileERKNSt7__cxx1112basic_stringIcSt11char_traitsIcESaIcEEE
FNDA:285,_ZN9ChainHash6insertERKNSt7__cxx1112basic_stringIcSt11char_traitsIcESaIcEEES7_
FNDA:104,_Z13is_space_charc
FNDA:8,_Z9parse_cmdRKNSt7__cxx1112basic_stringIcSt11char_traitsIcESaIcEEERS4_S7_S7_
FNDA:1,_Z8hash_manv
FNDA:8,_ZN9ChainHash5eraseERKNSt7__cxx1112basic_stringIcSt11char_traitsIcESaIcEEE
FNDA:1341,_Z8hash_strRKNSt7__cxx1112basic_stringIcSt11char_traitsIcESaIcEEEi
FNDA:378,_ZN9ChainHash4findERKNSt7__cxx1112basic_stringIcSt11char_traitsIcESaIcEEE
FNF:24
FNH:24
DA:8,1341
DA:10,1341
DA:11,5272
DA:13,3931
DA:15,1341
DA:19,146
DA:21,146
DA:22,146
DA:23,1548
DA:24,146
DA:26,146
DA:28,1548
DA:30,1402
DA:31,1679
DA:33,277
DA:34,277
DA:35,277
DA:38,146
DA:39,146
DA:40,146
DA:41,146
DA:43,285
DA:44,285
DA:47,285
DA:48,285
DA:49,291
DA:50,8
DA:51,2
DA:52,2
DA:54,6
DA:57,283
DA:58,283
DA:59,283
DA:62,8
DA:64,8
DA:66,8
DA:67,8
DA:69,10
DA:71,8
DA:73,6
DA:74,2
DA:76,4
DA:78,6
DA:79,6
DA:81,2
DA:82,2
DA:84,2
DA:87,378
DA:89,378
DA:90,378
DA:92,389
DA:93,382
DA:94,371
DA:96,11
DA:98,14
DA:101,3
DA:102,3
DA:103,3
DA:104,23
DA:105,20
DA:106,0
DA:107,0
DA:108,0
DA:109,0
DA:110,0
DA:111,0
DA:112,0
DA:114,0
DA:117,3
DA:118,3
DA:119,3
DA:121,47
DA:122,47
DA:123,47
DA:125,46
DA:128,46
DA:129,501
DA:130,455
DA:131,547
DA:132,92
DA:133,92
DA:136,46
DA:139,501
DA:140,455
DA:141,547
DA:142,92
DA:143,92
DA:144,92
DA:147,47
DA:149,48
DA:150,48
DA:151,48
DA:154,501
DA:155,455
DA:156,455
DA:157,0
DA:158,0
DA:159,0
DA:162,46
DA:166,46
DA:167,46
DA:169,46
DA:170,46
DA:171,501
DA:174,46
DA:175,46
DA:177,46
DA:178,138
DA:179,92
DA:180,92
DA:181,92
DA:182,92
DA:183,92
DA:184,48
DA:187,45
DA:188,45
DA:189,45
DA:191,45
DA:193,45
DA:194,495
DA:195,450
DA:196,540
DA:197,90
DA:198,90
DA:201,45
DA:203,495
DA:204,450
DA:205,540
DA:206,90
DA:207,90
DA:208,90
DA:211,45
DA:213,45
DA:214,45
DA:215,45
DA:218,495
DA:219,450
DA:220,450
DA:221,0
DA:222,0
DA:223,0
DA:226,45
DA:228,45
DA:229,45
DA:230,495
DA:233,45
DA:235,45
DA:236,135
DA:237,90
DA:238,90
DA:239,90
DA:240,90
DA:241,90
DA:242,45
DA:246,146
DA:248,146
DA:249,1542
DA:250,1542
DA:251,1396
DA:252,1396
DA:254,146
DA:256,146
DA:258,1542
DA:259,146
DA:260,146
DA:261,146
DA:263,291
DA:265,291
DA:266,291
DA:270,295
DA:272,287
DA:273,287
DA:274,287
DA:275,287
DA:277,287
DA:279,8
DA:280,1
DA:282,1
DA:284,7
DA:285,1
DA:286,1
DA:287,1
DA:288,1
DA:290,1
DA:293,6
DA:295,6
DA:297,2
DA:298,2
DA:303,5
DA:305,5
DA:306,5
DA:310,5
DA:311,3
DA:312,3
DA:313,3
DA:315,2
DA:316,2
DA:318,0
DA:320,0
DA:321,0
DA:326,374
DA:327,374
DA:328,374
DA:331,381
DA:332,369
DA:334,12
DA:335,6
DA:337,9
DA:338,9
DA:339,4
DA:344,1
DA:345,1
DA:346,1
DA:347,11
DA:348,10
DA:349,0
DA:350,0
DA:351,10
DA:352,1
DA:353,1
DA:356,1
DA:357,1
DA:358,1
DA:360,46
DA:361,46
DA:362,46
DA:364,46
DA:366,46
DA:367,501
DA:368,455
DA:370,46
DA:372,501
DA:373,455
DA:374,92
DA:375,92
DA:378,46
DA:380,47
DA:381,47
DA:382,47
DA:384,501
DA:387,46
DA:388,46
DA:390,46
DA:391,501
DA:394,46
DA:395,46
DA:397,46
DA:398,138
DA:399,92
DA:400,92
DA:401,92
DA:402,92
DA:403,92
DA:404,47
DA:407,46
DA:408,46
DA:409,46
DA:410,45
DA:411,45
DA:412,495
DA:413,450
DA:415,45
DA:416,495
DA:417,450
DA:418,90
DA:419,90
DA:422,46
DA:424,46
DA:425,46
DA:426,46
DA:427,495
DA:428,45
DA:429,495
DA:431,45
DA:432,45
DA:433,135
DA:434,90
DA:435,90
DA:436,90
DA:437,90
DA:438,90
DA:439,46
DA:441,104
DA:442,104
DA:445,8
DA:446,8
DA:447,8
DA:448,8
DA:450,13
DA:452,52
DA:453,44
DA:455,20
DA:456,18
DA:457,10
DA:459,15
DA:460,8
DA:461,8
DA:463,1
DA:464,1
DA:465,1
DA:466,1
DA:469,5
DA:470,5
DA:471,5
DA:472,5
DA:473,5
DA:474,5
DA:475,5
DA:477,5
DA:478,5
DA:479,1
DA:480,1
DA:482,4
DA:483,1
DA:484,1
DA:485,1
DA:487,3
DA:488,1
DA:489,1
DA:490,1
DA:492,2
DA:493,1
DA:494,1
DA:495,1
DA:497,1
DA:498,1
DA:499,1
DA:500,1
DA:501,1
DA:502,1
DA:503,1
DA:504,24
DA:505,1
LF:333
LH:314
end_of_record
TN:
SF:/home/user/3sem/labb/hash.h
FN:21,22,_ZN9ChainHash4NodeC2ERKNSt7__cxx1112basic_stringIcSt11char_traitsIcESaIcEEES8_
FN:63,63,_ZN8OpenHash5EntryC2Ev
FNDA:283,_ZN9ChainHash4NodeC2ERKNSt7__cxx1112basic_stringIcSt11char_traitsIcESaIcEEES8_
FNDA:2301,_ZN8OpenHash5EntryC2Ev
FNF:2
FNH:2
DA:21,283
DA:22,283
DA:63,2301
LF:3
LH:3
end_of_record
TN:
SF:/home/user/3sem/labb/list.cpp
FN:108,130,_ZN6MyList10delByValueERKNSt7__cxx1112basic_stringIcSt11char_traitsIcESaIcEEE
FN:11,19,_ZN6MyListD2Ev
FN:133,142,_ZNK6MyList9findValueERKNSt7__cxx1112basic_stringIcSt11char_traitsIcESaIcEEE
FN:145,155,_ZNK6MyList11readForwardEv
FN:157,162,_ZNK6MyList9printBackEPNS_4NodeE
FN:164,172,_ZNK6MyList8readBackEv
FN:174,179,_ZN6MyList7delHeadEv
FN:181,191,_ZN6MyList13delAfterValueERKNSt7__cxx1112basic_stringIcSt11char_traitsIcESaIcEEE
FN:193,209,_ZN6MyList14delBeforeValueERKNSt7__cxx1112basic_stringIcSt11char_traitsIcESaIcEEE
FN:21,24,_ZN6MyList7addHeadERKNSt7__cxx1112basic_stringIcSt11char_traitsIcESaIcEEE
FN:212,225,_ZNK6MyList10saveToFileERKNSt7__cxx1112basic_stringIcSt11char_traitsIcESaIcEEE
FN:227,243,_ZN6MyList12loadFromFileERKNSt7__cxx1112basic_stringIcSt11char_traitsIcESaIcEEE
FN:246,259,_ZNK6MyList16saveToBinaryFileERKNSt7__cxx1112basic_stringIcSt11char_traitsIcESaIcEEE
FN:261,276,_ZN6MyList18loadFromBinaryFileERKNSt7__cxx1112basic_stringIcSt11char_traitsIcESaIcEEE
FN:27,39,_ZN6MyList7addTailERKNSt7__cxx1112basic_stringIcSt11char_traitsIcESaIcEEE
FN:42,65,_ZN6MyList9addBeforeERKNSt7__cxx1112basic_stringIcSt11char_traitsIcESaIcEEES7_
FN:68,85,_ZN6MyList8addAfterERKNSt7__cxx1112basic_stringIcSt11char_traitsIcESaIcEEES7_
FN:7,8,_ZN6MyListC2Ev
FN:88,105,_ZN6MyList7delTailEv
FNDA:8,_ZN6MyList10delByValueERKNSt7__cxx1112basic_stringIcSt11char_traitsIcESaIcEEE
FNDA:159,_ZN6MyListD2Ev
FNDA:281,_ZNK6MyList9findValueERKNSt7__cxx1112basic_stringIcSt11char_traitsIcESaIcEEE
FNDA:1,_ZNK6MyList11readForwardEv
FNDA:4,_ZNK6MyList9printBackEPNS_4NodeE
FNDA:2,_ZNK6MyList8readBackEv
FNDA:12,_ZN6MyList7delHeadEv
FNDA:11,_ZN6MyList13delAfterValueERKNSt7__cxx1112basic_stringIcSt11char_traitsIcESaIcEEE
FNDA:13,_ZN6MyList14delBeforeValueERKNSt7__cxx1112basic_stringIcSt11char_traitsIcESaIcEEE
FNDA:9,_ZN6MyList7addHeadERKNSt7__cxx1112basic_stringIcSt11char_traitsIcESaIcEEE
FNDA:47,_ZNK6MyList10saveToFileERKNSt7__cxx1112basic_stringIcSt11char_traitsIcESaIcEEE
FNDA:50,_ZN6MyList12loadFromFileERKNSt7__cxx1112basic_stringIcSt11char_traitsIcESaIcEEE
FNDA:45,_ZNK6MyList16saveToBinaryFileERKNSt7__cxx1112basic_stringIcSt11char_traitsIcESaIcEEE
FNDA:45,_ZN6MyList18loadFromBinaryFileERKNSt7__cxx1112basic_stringIcSt11char_traitsIcESaIcEEE
FNDA:443,_ZN6MyList7addTailERKNSt7__cxx1112basic_stringIcSt11char_traitsIcESaIcEEE
FNDA:5,_ZN6MyList9addBeforeERKNSt7__cxx1112basic_stringIcSt11char_traitsIcESaIcEEES7_
FNDA:3,_ZN6MyList8addAfterERKNSt7__cxx1112basic_stringIcSt11char_traitsIcESaIcEEES7_
FNDA:159,_ZN6MyListC2Ev
FNDA:6,_ZN6MyList7delTailEv
FNF:19
FNH:19
DA:7,159
DA:8,159
DA:11,159
DA:12,159
DA:13,591
DA:14,432
DA:15,432
DA:16,432
DA:18,159
DA:19,159
DA:21,9
DA:22,9
DA:23,9
DA:24,9
DA:27,443
DA:28,443
DA:29,443
DA:30,151
DA:31,151
DA:34,292
DA:36,435
DA:37,143
DA:38,292
DA:42,5
DA:43,5
DA:44,2
DA:47,3
DA:48,2
DA:49,2
DA:52,1
DA:54,2
DA:55,1
DA:58,1
DA:59,1
DA:60,1
DA:63,0
DA:64,0
DA:68,3
DA:69,3
DA:70,1
DA:71,1
DA:74,2
DA:75,5
DA:76,3
DA:78,2
DA:79,2
DA:80,2
DA:83,0
DA:84,0
DA:88,6
DA:89,6
DA:90,2
DA:91,2
DA:93,4
DA:94,2
DA:95,2
DA:96,2
DA:99,2
DA:100,3
DA:101,1
DA:103,2
DA:104,2
DA:108,8
DA:109,8
DA:110,2
DA:111,2
DA:113,6
DA:114,2
DA:115,2
DA:116,2
DA:118,4
DA:119,5
DA:120,1
DA:122,4
DA:123,2
DA:124,2
DA:126,2
DA:127,2
DA:128,2
DA:129,2
DA:133,281
DA:134,281
DA:135,566
DA:136,557
DA:137,272
DA:139,285
DA:141,9
DA:145,1
DA:146,1
DA:147,1
DA:148,1
DA:150,0
DA:151,0
DA:152,0
DA:154,0
DA:157,4
DA:158,4
DA:159,1
DA:160,3
DA:161,3
DA:164,2
DA:165,2
DA:166,1
DA:167,1
DA:169,1
DA:170,1
DA:171,1
DA:174,12
DA:175,12
DA:176,10
DA:177,10
DA:178,10
DA:181,11
DA:182,11
DA:183,5
DA:184,10
DA:185,5
DA:187,5
DA:188,2
DA:189,2
DA:190,2
DA:193,13
DA:194,13
DA:195,4
DA:196,9
DA:197,4
DA:198,4
DA:200,5
DA:201,7
DA:202,2
DA:204,5
DA:205,3
DA:206,2
DA:207,2
DA:208,2
DA:212,47
DA:213,47
DA:214,47
DA:216,45
DA:217,180
DA:218,135
DA:220,45
DA:222,180
DA:223,135
DA:225,47
DA:227,50
DA:228,50
DA:229,50
DA:231,50
DA:234,48
DA:235,48
DA:237,48
DA:239,182
DA:240,136
DA:241,136
DA:242,136
DA:243,52
DA:246,45
DA:247,45
DA:248,45
DA:250,45
DA:251,180
DA:252,135
DA:254,45
DA:256,180
DA:257,135
DA:259,45
DA:261,45
DA:262,45
DA:263,45
DA:265,45
DA:268,45
DA:269,45
DA:271,180
DA:272,135
DA:273,135
DA:274,135
DA:275,135
DA:276,45
LF:179
LH:171
end_of_record
TN:
SF:/home/user/3sem/labb/list.h
FN:17,17,_ZN6MyList4NodeC2ERKNSt7__cxx1112basic_stringIcSt11char_traitsIcESaIcEEEPS0_
FN:51,53,_ZNK6MyList12getHead_testEv
FNDA:452,_ZN6MyList4NodeC2ERKNSt7__cxx1112basic_stringIcSt11char_traitsIcESaIcEEEPS0_
FNDA:16,_ZNK6MyList12getHead_testEv
FNF:2
FNH:2
DA:17,452
DA:51,16
DA:52,16
LF:3
LH:3
end_of_record
TN:
SF:/home/user/3sem/labb/queue.cpp
FN:104,117,_ZNK5Queue16saveToBinaryFileERKNSt7__cxx1112basic_stringIcSt11char_traitsIcESaIcEEE
FN:11,15,_ZN5QueueD2Ev
FN:119,134,_ZN5Queue18loadFromBinaryFileERKNSt7__cxx1112basic_stringIcSt11char_traitsIcESaIcEEE
FN:17,19,_ZNK5Queue7isEmptyEv
FN:21,33,_ZN5Queue4pushENSt7__cxx1112basic_stringIcSt11char_traitsIcESaIcEEE
FN:36,50,_ZN5Queue3popB5cxx11Ev
FN:52,57,_ZNK5Queue4peekB5cxx11Ev
FN:59,69,_ZNK5Queue5printEv
FN:7,8,_ZN5QueueC2Ev
FN:73,86,_ZNK5Queue10saveToFileERKNSt7__cxx1112basic_stringIcSt11char_traitsIcESaIcEEE
FN:88,101,_ZN5Queue12loadFromFileERKNSt7__cxx1112basic_stringIcSt11char_traitsIcESaIcEEE
FNDA:45,_ZNK5Queue16saveToBinaryFileERKNSt7__cxx1112basic_stringIcSt11char_traitsIcESaIcEEE
FNDA:145,_ZN5QueueD2Ev
FNDA:46,_ZN5Queue18loadFromBinaryFileERKNSt7__cxx1112basic_stringIcSt11char_traitsIcESaIcEEE
FNDA:1226,_ZNK5Queue7isEmptyEv
FNDA:418,_ZN5Queue4pushENSt7__cxx1112basic_stringIcSt11char_traitsIcESaIcEEE
FNDA:420,_ZN5Queue3popB5cxx11Ev
FNDA:5,_ZNK5Queue4peekB5cxx11Ev
FNDA:2,_ZNK5Queue5printEv
FNDA:145,_ZN5QueueC2Ev
FNDA:47,_ZNK5Queue10saveToFileERKNSt7__cxx1112basic_stringIcSt11char_traitsIcESaIcEEE
FNDA:49,_ZN5Queue12loadFromFileERKNSt7__cxx1112basic_stringIcSt11char_traitsIcESaIcEEE
FNF:11
FNH:11
DA:7,145
DA:8,145
DA:11,145
DA:12,284
DA:13,139
DA:15,145
DA:17,1226
DA:18,1226
DA:21,418
DA:22,418
DA:23,418
DA:24,418
DA:26,418
DA:27,142
DA:28,142
DA:30,276
DA:31,276
DA:33,418
DA:36,420
DA:37,420
DA:38,4
DA:40,418
DA:41,418
DA:43,418
DA:44,418
DA:46,418
DA:47,142
DA:49,418
DA:50,418
DA:52,5
DA:53,5
DA:54,4
DA:56,3
DA:59,2
DA:60,2
DA:61,2
DA:62,2
DA:64,0
DA:65,0
DA:66,0
DA:68,0
DA:73,47
DA:74,47
DA:75,47
DA:77,46
DA:78,183
DA:79,137
DA:81,46
DA:83,183
DA:84,137
DA:86,47
DA:88,49
DA:89,49
DA:90,49
DA:92,47
DA:95,47
DA:96,47
DA:98,184
DA:99,137
DA:101,49
DA:104,45
DA:105,45
DA:106,45
DA:108,45
DA:109,180
DA:110,135
DA:112,45
DA:114,180
DA:115,135
DA:117,45
DA:119,46
DA:120,46
DA:121,46
DA:123,46
DA:126,46
DA:127,46
DA:129,181
DA:130,136
DA:131,136
DA:132,135
DA:133,136
DA:134,46
LF:82
LH:78
end_of_record
TN:
SF:/home/user/3sem/labb/serialize.h
FN:11,15,_Z11writeStringRSt14basic_ofstreamIcSt11char_traitsIcEERKNSt7__cxx1112basic_stringIcS1_SaIcEEE
FN:17,26,_Z10readStringB5cxx11RSt14basic_ifstreamIcSt11char_traitsIcEE
FN:29,32,_Z15writeStringTextRSt14basic_ofstreamIcSt11char_traitsIcEERKNSt7__cxx1112basic_stringIcS1_SaIcEEE
FN:34,41,_Z14readStringTextB5cxx11RSt14basic_ifstreamIcSt11char_traitsIcEE
FNDA:1083,_Z11writeStringRSt14basic_ofstreamIcSt11char_traitsIcEERKNSt7__cxx1112basic_stringIcS1_SaIcEEE
FNDA:1086,_Z10readStringB5cxx11RSt14basic_ifstreamIcSt11char_traitsIcEE
FNDA:1094,_Z15writeStringTextRSt14basic_ofstreamIcSt11char_traitsIcEERKNSt7__cxx1112basic_stringIcS1_SaIcEEE
FNDA:1095,_Z14readStringTextB5cxx11RSt14basic_ifstreamIcSt11char_traitsIcEE
FNF:4
FNH:4
DA:11,1083
DA:12,1083
DA:13,1083
DA:14,1083
DA:15,1083
DA:17,1086
DA:19,1086
DA:20,1094
DA:22,1082
DA:23,1082
DA:24,1082
DA:25,1082
DA:26,1082
DA:29,1094
DA:31,1094
DA:32,1094
DA:34,1095
DA:35,1095
DA:36,1095
DA:37,1095
DA:38,1095
DA:40,0
DA:41,1095
LF:23
LH:22
end_of_record
TN:
SF:/home/user/3sem/labb/stack.cpp
FN:10,17,_ZN5StackD2Ev
FN:104,125,_ZNK5Stack16saveToBinaryFileERKNSt7__cxx1112basic_stringIcSt11char_traitsIcESaIcEEE
FN:127,142,_ZN5Stack18loadFromBinaryFileERKNSt7__cxx1112basic_stringIcSt11char_traitsIcESaIcEEE
FN:19,24,_ZN5Stack4pushENSt7__cxx1112basic_stringIcSt11char_traitsIcESaIcEEE
FN:27,36,_ZN5Stack3popB5cxx11Ev
FN:39,44,_ZNK5Stack4peekB5cxx11Ev
FN:46,48,_ZNK5Stack7isEmptyEv
FN:50,59,_ZNK5Stack9readStackEv
FN:6,7,_ZN5StackC2Ev
FN:64,86,_ZNK5Stack10saveToFileERKNSt7__cxx1112basic_stringIcSt11char_traitsIcESaIcEEE
FN:88,101,_ZN5Stack12loadFromFileERKNSt7__cxx1112basic_stringIcSt11char_traitsIcESaIcEEE
FNDA:143,_ZN5StackD2Ev
FNDA:45,_ZNK5Stack16saveToBinaryFileERKNSt7__cxx1112basic_stringIcSt11char_traitsIcESaIcEEE
FNDA:46,_ZN5Stack18loadFromBinaryFileERKNSt7__cxx1112basic_stringIcSt11char_traitsIcESaIcEEE
FNDA:415,_ZN5Stack4pushENSt7__cxx1112basic_stringIcSt11char_traitsIcESaIcEEE
FNDA:280,_ZN5Stack3popB5cxx11Ev
FNDA:4,_ZNK5Stack4peekB5cxx11Ev
FNDA:95,_ZNK5Stack7isEmptyEv
FNDA:3,_ZNK5Stack9readStackEv
FNDA:143,_ZN5StackC2Ev
FNDA:47,_ZNK5Stack10saveToFileERKNSt7__cxx1112basic_stringIcSt11char_traitsIcESaIcEEE
FNDA:49,_ZN5Stack12loadFromFileERKNSt7__cxx1112basic_stringIcSt11char_traitsIcESaIcEEE
FNF:11
FNH:11
DA:6,143
DA:7,143
DA:10,143
DA:11,425
DA:12,139
DA:13,139
DA:14,139
DA:16,143
DA:17,143
DA:19,415
DA:20,415
DA:21,415
DA:22,415
DA:23,415
DA:24,415
DA:27,280
DA:28,280
DA:29,8
DA:31,276
DA:32,276
DA:33,276
DA:34,276
DA:35,276
DA:36,276
DA:39,4
DA:40,4
DA:41,6
DA:43,1
DA:46,95
DA:47,95
DA:50,3
DA:51,3
DA:52,3
DA:53,3
DA:55,0
DA:56,0
DA:57,0
DA:64,47
DA:65,47
DA:66,47
DA:68,46
DA:69,183
DA:70,137
DA:72,46
DA:75,46
DA:76,183
DA:77,183
DA:78,137
DA:79,137
DA:82,183
DA:83,137
DA:85,229
DA:86,47
DA:88,49
DA:89,49
DA:90,49
DA:92,47
DA:95,47
DA:96,47
DA:98,184
DA:99,137
DA:101,49
DA:104,45
DA:105,45
DA:106,45
DA:108,45
DA:109,180
DA:110,135
DA:112,45
DA:114,45
DA:115,180
DA:116,180
DA:117,135
DA:118,135
DA:121,180
DA:122,135
DA:124,225
DA:125,45
DA:127,46
DA:128,46
DA:129,46
DA:131,46
DA:134,46
DA:135,46
DA:137,181
DA:138,136
DA:139,136
DA:140,135
DA:141,136
DA:142,46
LF:90
LH:87
end_of_record
